target datalayout = "e-m:e-p270:32:32-p271:32:32-p272:64:64-i64:64-i128:128-f80:128-n8:16:32:64-S128"
target triple = "x86_64-pc-linux-gnu"

%struct.Expr = type { i32 }
%struct.BooleanTest = type { %struct.Expr, ptr, i32, i32 }

@.str.41 = private unnamed_addr constant [13 x i8] c"parse_expr.c\00", align 1
@.str.127 = private unnamed_addr constant [8 x i8] c"IS TRUE\00", align 1
@.str.128 = private unnamed_addr constant [12 x i8] c"IS NOT TRUE\00", align 1
@.str.129 = private unnamed_addr constant [9 x i8] c"IS FALSE\00", align 1
@.str.130 = private unnamed_addr constant [13 x i8] c"IS NOT FALSE\00", align 1
@.str.131 = private unnamed_addr constant [11 x i8] c"IS UNKNOWN\00", align 1
@.str.132 = private unnamed_addr constant [15 x i8] c"IS NOT UNKNOWN\00", align 1
@.str.133 = private unnamed_addr constant [30 x i8] c"unrecognized booltesttype: %d\00", align 1
@__func__.transformBooleanTest = private unnamed_addr constant [21 x i8] c"transformBooleanTest\00", align 1

; Function Attrs: nounwind uwtable
define internal ptr @transformBooleanTest(ptr noundef %0, ptr noundef %1) #0 {
  %3 = alloca ptr, align 8
  %4 = alloca ptr, align 8
  %5 = alloca ptr, align 8
  store ptr %0, ptr %3, align 8
  store ptr %1, ptr %4, align 8
  call void @llvm.lifetime.start.p0(i64 8, ptr %5) #8
  %6 = load ptr, ptr %4, align 8
  %7 = getelementptr inbounds nuw %struct.BooleanTest, ptr %6, i32 0, i32 2
  %8 = load i32, ptr %7, align 8
  switch i32 %8, label %15 [
    i32 0, label %9
    i32 1, label %10
    i32 2, label %11
    i32 3, label %12
    i32 4, label %13
    i32 5, label %14
  ]

9:                                                ; preds = %2
  store ptr @.str.127, ptr %5, align 8
  br label %29

10:                                               ; preds = %2
  store ptr @.str.128, ptr %5, align 8
  br label %29

11:                                               ; preds = %2
  store ptr @.str.129, ptr %5, align 8
  br label %29

12:                                               ; preds = %2
  store ptr @.str.130, ptr %5, align 8
  br label %29

13:                                               ; preds = %2
  store ptr @.str.131, ptr %5, align 8
  br label %29

14:                                               ; preds = %2
  store ptr @.str.132, ptr %5, align 8
  br label %29

15:                                               ; preds = %2
  br label %16

16:                                               ; preds = %15
  br i1 true, label %17, label %19

17:                                               ; preds = %16
  %18 = call zeroext i1 @errstart_cold(i32 noundef 21, ptr noundef null) #9
  br i1 %18, label %21, label %26

19:                                               ; preds = %16
  %20 = call zeroext i1 @errstart(i32 noundef 21, ptr noundef null)
  br i1 %20, label %21, label %26

21:                                               ; preds = %19, %17
  %22 = load ptr, ptr %4, align 8
  %23 = getelementptr inbounds nuw %struct.BooleanTest, ptr %22, i32 0, i32 2
  %24 = load i32, ptr %23, align 8
  %25 = call i32 (ptr, ...) @errmsg_internal(ptr noundef @.str.133, i32 noundef %24)
  call void @errfinish(ptr noundef @.str.41, i32 noundef 2544, ptr noundef @__func__.transformBooleanTest)
  br label %26

26:                                               ; preds = %21, %19, %17
  unreachable

27:                                               ; No predecessors!
  br label %28

28:                                               ; preds = %27
  store ptr null, ptr %5, align 8
  br label %29

29:                                               ; preds = %28, %14, %13, %12, %11, %10, %9
  %30 = load ptr, ptr %3, align 8
  %31 = load ptr, ptr %4, align 8
  %32 = getelementptr inbounds nuw %struct.BooleanTest, ptr %31, i32 0, i32 1
  %33 = load ptr, ptr %32, align 8
  %34 = call ptr @transformExprRecurse(ptr noundef %30, ptr noundef %33)
  %35 = load ptr, ptr %4, align 8
  %36 = getelementptr inbounds nuw %struct.BooleanTest, ptr %35, i32 0, i32 1
  store ptr %34, ptr %36, align 8
  %37 = load ptr, ptr %3, align 8
  %38 = load ptr, ptr %4, align 8
  %39 = getelementptr inbounds nuw %struct.BooleanTest, ptr %38, i32 0, i32 1
  %40 = load ptr, ptr %39, align 8
  %41 = load ptr, ptr %5, align 8
  %42 = call ptr @coerce_to_boolean(ptr noundef %37, ptr noundef %40, ptr noundef %41)
  %43 = load ptr, ptr %4, align 8
  %44 = getelementptr inbounds nuw %struct.BooleanTest, ptr %43, i32 0, i32 1
  store ptr %42, ptr %44, align 8
  %45 = load ptr, ptr %4, align 8
  call void @llvm.lifetime.end.p0(i64 8, ptr %5) #8
  ret ptr %45
}