; Function Attrs: nounwind uwtable
define internal fastcc noundef nonnull ptr @transformBooleanTest(ptr noundef %0, ptr noundef nonnull returned captures(ret: address, provenance) %1) unnamed_addr #0 {
  %3 = getelementptr inbounds nuw i8, ptr %1, i64 16
  %4 = load i32, ptr %3, align 8
  %5 = icmp ult i32 %4, 6
  br i1 %5, label %switch.lookup, label %6

6:                                                ; preds = %2
  %7 = tail call zeroext i1 @errstart_cold(i32 noundef 21, ptr noundef null) #10
  tail call void @llvm.assume(i1 %7)
  %8 = load i32, ptr %3, align 8
  %9 = tail call i32 (ptr, ...) @errmsg_internal(ptr noundef nonnull @.str.133, i32 noundef %8) #9
  tail call void @errfinish(ptr noundef nonnull @.str.41, i32 noundef 2544, ptr noundef nonnull @__func__.transformBooleanTest) #9
  unreachable

switch.lookup:                                    ; preds = %2
  %10 = zext nneg i32 %4 to i64
  %switch.gep = getelementptr inbounds nuw [6 x ptr], ptr @switch.table.transformBooleanTest, i64 0, i64 %10
  %switch.load = load ptr, ptr %switch.gep, align 8
  %11 = getelementptr inbounds nuw i8, ptr %1, i64 8
  %12 = load ptr, ptr %11, align 8
  %13 = tail call fastcc ptr @transformExprRecurse(ptr noundef %0, ptr noundef %12)
  store ptr %13, ptr %11, align 8
  %14 = tail call ptr @coerce_to_boolean(ptr noundef %0, ptr noundef %13, ptr noundef nonnull %switch.load) #9
  store ptr %14, ptr %11, align 8
  ret ptr %1
}